target datalayout = "e-m:e-p270:32:32-p271:32:32-p272:64:64-i64:64-i128:128-f80:128-n8:16:32:64-S128"
target triple = "x86_64-pc-linux-gnu"

; Function Attrs: mustprogress uwtable
define i32 @ubidi_getBaseDirection_77(ptr noundef %0, i32 noundef %1) #0 {
  %3 = alloca i32, align 4
  %4 = alloca ptr, align 8
  %5 = alloca i32, align 4
  %6 = alloca i32, align 4
  %7 = alloca i32, align 4
  %8 = alloca i32, align 4
  %9 = alloca i32, align 4
  %10 = alloca i16, align 2
  store ptr %0, ptr %4, align 8, !tbaa !45
  store i32 %1, ptr %5, align 4, !tbaa !7
  call void @llvm.lifetime.start.p0(i64 4, ptr %6) #10
  call void @llvm.lifetime.start.p0(i64 4, ptr %7) #10
  call void @llvm.lifetime.start.p0(i64 4, ptr %8) #10
  %11 = load ptr, ptr %4, align 8, !tbaa !45
  %12 = icmp eq ptr %11, null
  br i1 %12, label %16, label %13

13:                                               ; preds = %2
  %14 = load i32, ptr %5, align 4, !tbaa !7
  %15 = icmp slt i32 %14, -1
  br i1 %15, label %16, label %17

16:                                               ; preds = %13, %2
  store i32 3, ptr %3, align 4
  store i32 1, ptr %9, align 4
  br label %80

17:                                               ; preds = %13
  %18 = load i32, ptr %5, align 4, !tbaa !7
  %19 = icmp eq i32 %18, -1
  br i1 %19, label %20, label %23

20:                                               ; preds = %17
  %21 = load ptr, ptr %4, align 8, !tbaa !45
  %22 = call i32 @u_strlen_77(ptr noundef %21)
  store i32 %22, ptr %5, align 4, !tbaa !7
  br label %23

23:                                               ; preds = %20, %17
  store i32 0, ptr %6, align 4, !tbaa !7
  br label %24

24:                                               ; preds = %78, %23
  %25 = load i32, ptr %6, align 4, !tbaa !7
  %26 = load i32, ptr %5, align 4, !tbaa !7
  %27 = icmp slt i32 %25, %26
  br i1 %27, label %28, label %79

28:                                               ; preds = %24
  br label %29

29:                                               ; preds = %28
  %30 = load ptr, ptr %4, align 8, !tbaa !45
  %31 = load i32, ptr %6, align 4, !tbaa !7
  %32 = add nsw i32 %31, 1
  store i32 %32, ptr %6, align 4, !tbaa !7
  %33 = sext i32 %31 to i64
  %34 = getelementptr inbounds i16, ptr %30, i64 %33
  %35 = load i16, ptr %34, align 2, !tbaa !46
  %36 = zext i16 %35 to i32
  store i32 %36, ptr %7, align 4, !tbaa !7
  %37 = load i32, ptr %7, align 4, !tbaa !7
  %38 = and i32 %37, -1024
  %39 = icmp eq i32 %38, 55296
  br i1 %39, label %40, label %63

40:                                               ; preds = %29
  call void @llvm.lifetime.start.p0(i64 2, ptr %10) #10
  %41 = load i32, ptr %6, align 4, !tbaa !7
  %42 = load i32, ptr %5, align 4, !tbaa !7
  %43 = icmp ne i32 %41, %42
  br i1 %43, label %44, label %62

44:                                               ; preds = %40
  %45 = load ptr, ptr %4, align 8, !tbaa !45
  %46 = load i32, ptr %6, align 4, !tbaa !7
  %47 = sext i32 %46 to i64
  %48 = getelementptr inbounds i16, ptr %45, i64 %47
  %49 = load i16, ptr %48, align 2, !tbaa !46
  store i16 %49, ptr %10, align 2, !tbaa !48
  %50 = zext i16 %49 to i32
  %51 = and i32 %50, -1024
  %52 = icmp eq i32 %51, 56320
  br i1 %52, label %53, label %62

53:                                               ; preds = %44
  %54 = load i32, ptr %6, align 4, !tbaa !7
  %55 = add nsw i32 %54, 1
  store i32 %55, ptr %6, align 4, !tbaa !7
  %56 = load i32, ptr %7, align 4, !tbaa !7
  %57 = shl i32 %56, 10
  %58 = load i16, ptr %10, align 2, !tbaa !48
  %59 = zext i16 %58 to i32
  %60 = add nsw i32 %57, %59
  %61 = sub nsw i32 %60, 56613888
  store i32 %61, ptr %7, align 4, !tbaa !7
  br label %62

62:                                               ; preds = %53, %44, %40
  call void @llvm.lifetime.end.p0(i64 2, ptr %10) #10
  br label %63

63:                                               ; preds = %62, %29
  br label %64

64:                                               ; preds = %63
  br label %65

65:                                               ; preds = %64
  %66 = load i32, ptr %7, align 4, !tbaa !7
  %67 = call i32 @u_charDirection_77(i32 noundef %66)
  store i32 %67, ptr %8, align 4, !tbaa !50
  %68 = load i32, ptr %8, align 4, !tbaa !50
  %69 = icmp eq i32 %68, 0
  br i1 %69, label %70, label %71

70:                                               ; preds = %65
  store i32 0, ptr %3, align 4
  store i32 1, ptr %9, align 4
  br label %80

71:                                               ; preds = %65
  %72 = load i32, ptr %8, align 4, !tbaa !50
  %73 = icmp eq i32 %72, 1
  br i1 %73, label %77, label %74

74:                                               ; preds = %71
  %75 = load i32, ptr %8, align 4, !tbaa !50
  %76 = icmp eq i32 %75, 13
  br i1 %76, label %77, label %78

77:                                               ; preds = %74, %71
  store i32 1, ptr %3, align 4
  store i32 1, ptr %9, align 4
  br label %80

78:                                               ; preds = %74
  br label %24, !llvm.loop !52

79:                                               ; preds = %24
  store i32 3, ptr %3, align 4
  store i32 1, ptr %9, align 4
  br label %80

80:                                               ; preds = %79, %77, %70, %16
  call void @llvm.lifetime.end.p0(i64 4, ptr %8) #10
  call void @llvm.lifetime.end.p0(i64 4, ptr %7) #10
  call void @llvm.lifetime.end.p0(i64 4, ptr %6) #10
  %81 = load i32, ptr %3, align 4
  ret i32 %81
}