; Function Attrs: mustprogress uwtable
define range(i32 0, 4) i32 @ubidi_getBaseDirection_77(ptr noundef %0, i32 noundef %1) local_unnamed_addr #0 {
  %3 = icmp eq ptr %0, null
  %4 = icmp slt i32 %1, -1
  %or.cond = or i1 %3, %4
  br i1 %or.cond, label %.fold.split, label %5

5:                                                ; preds = %2
  %6 = icmp eq i32 %1, -1
  br i1 %6, label %7, label %9

7:                                                ; preds = %5
  %8 = tail call i32 @u_strlen_77(ptr noundef nonnull %0)
  br label %9

9:                                                ; preds = %7, %5
  %.023 = phi i32 [ %8, %7 ], [ %1, %5 ]
  br label %10

10:                                               ; preds = %32, %9
  %.025 = phi i32 [ 0, %9 ], [ %.2, %32 ]
  %11 = icmp slt i32 %.025, %.023
  br i1 %11, label %12, label %.fold.split.loopexit34

12:                                               ; preds = %10
  %13 = add nsw i32 %.025, 1
  %14 = sext i32 %.025 to i64
  %15 = getelementptr inbounds i16, ptr %0, i64 %14
  %16 = load i16, ptr %15, align 2, !tbaa !38
  %17 = zext i16 %16 to i32
  %18 = and i32 %17, 64512
  %19 = icmp ne i32 %18, 55296
  %.not = icmp eq i32 %13, %.023
  %or.cond32 = select i1 %19, i1 true, i1 %.not
  br i1 %or.cond32, label %32, label %20

20:                                               ; preds = %12
  %21 = sext i32 %13 to i64
  %22 = getelementptr inbounds i16, ptr %0, i64 %21
  %23 = load i16, ptr %22, align 2, !tbaa !38
  %24 = zext i16 %23 to i32
  %25 = and i32 %24, 64512
  %26 = icmp eq i32 %25, 56320
  br i1 %26, label %27, label %32

27:                                               ; preds = %20
  %28 = add nsw i32 %.025, 2
  %29 = shl nuw nsw i32 %17, 10
  %30 = add nsw i32 %29, -56613888
  %31 = add nuw nsw i32 %30, %24
  br label %32

32:                                               ; preds = %20, %27, %12
  %.2 = phi i32 [ %13, %12 ], [ %28, %27 ], [ %13, %20 ]
  %.1 = phi i32 [ %17, %12 ], [ %31, %27 ], [ %17, %20 ]
  %33 = tail call i32 @u_charDirection_77(i32 noundef %.1)
  switch i32 %33, label %10 [
    i32 0, label %.fold.split.loopexit34
    i32 13, label %.fold.split
    i32 1, label %.fold.split
  ]

.fold.split.loopexit34:                           ; preds = %10, %32
  %.0.ph = phi i32 [ 3, %10 ], [ %33, %32 ]
  br label %.fold.split

.fold.split:                                      ; preds = %32, %32, %.fold.split.loopexit34, %2
  %.0 = phi i32 [ 3, %2 ], [ %.0.ph, %.fold.split.loopexit34 ], [ 1, %32 ], [ 1, %32 ]
  ret i32 %.0
}